ARM GAS  /tmp/cckz3iH0.s 			page 1


   1              		.cpu cortex-m4
   2              		.arch armv7e-m
   3              		.fpu fpv4-sp-d16
   4              		.eabi_attribute 27, 1
   5              		.eabi_attribute 28, 1
   6              		.eabi_attribute 20, 1
   7              		.eabi_attribute 21, 1
   8              		.eabi_attribute 23, 3
   9              		.eabi_attribute 24, 1
  10              		.eabi_attribute 25, 1
  11              		.eabi_attribute 26, 1
  12              		.eabi_attribute 30, 1
  13              		.eabi_attribute 34, 1
  14              		.eabi_attribute 18, 4
  15              		.file	"bsp_led.c"
  16              		.text
  17              	.Ltext0:
  18              		.cfi_sections	.debug_frame
  19              		.section	.text.led_gpio_config,"ax",%progbits
  20              		.align	1
  21              		.global	led_gpio_config
  22              		.syntax unified
  23              		.thumb
  24              		.thumb_func
  26              	led_gpio_config:
  27              	.LFB116:
  28              		.file 1 "Hardware/Led/bsp_led.c"
   1:Hardware/Led/bsp_led.c **** #include "bsp_led.h"
   2:Hardware/Led/bsp_led.c **** 
   3:Hardware/Led/bsp_led.c **** /*
   4:Hardware/Led/bsp_led.c **** 
   5:Hardware/Led/bsp_led.c **** 	OPEN GPIOD TIME EN
   6:Hardware/Led/bsp_led.c **** 	
   7:Hardware/Led/bsp_led.c **** 	SET GPIOMODE
   8:Hardware/Led/bsp_led.c **** 
   9:Hardware/Led/bsp_led.c **** 	SET GPIO OUTPUT
  10:Hardware/Led/bsp_led.c **** 
  11:Hardware/Led/bsp_led.c **** 
  12:Hardware/Led/bsp_led.c **** */
  13:Hardware/Led/bsp_led.c **** void led_gpio_config(void)
  14:Hardware/Led/bsp_led.c **** {
  29              		.loc 1 14 1 view -0
  30              		.cfi_startproc
  31              		@ args = 0, pretend = 0, frame = 0
  32              		@ frame_needed = 0, uses_anonymous_args = 0
  33 0000 10B5     		push	{r4, lr}
  34              	.LCFI0:
  35              		.cfi_def_cfa_offset 8
  36              		.cfi_offset 4, -8
  37              		.cfi_offset 14, -4
  15:Hardware/Led/bsp_led.c **** 
  16:Hardware/Led/bsp_led.c **** 	rcu_periph_clock_enable(RCU_LED);
  38              		.loc 1 16 2 view .LVU1
  39 0002 40F60440 		movw	r0, #3076
  40 0006 FFF7FEFF 		bl	rcu_periph_clock_enable
  41              	.LVL0:
  17:Hardware/Led/bsp_led.c **** 	gpio_mode_set(PORT_LED,GPIO_MODE_OUTPUT,GPIO_PUPD_NONE,PIN_LED);
ARM GAS  /tmp/cckz3iH0.s 			page 2


  42              		.loc 1 17 2 view .LVU2
  43 000a 224C     		ldr	r4, .L3
  44 000c 0823     		movs	r3, #8
  45 000e 0022     		movs	r2, #0
  46 0010 0121     		movs	r1, #1
  47 0012 2046     		mov	r0, r4
  48 0014 FFF7FEFF 		bl	gpio_mode_set
  49              	.LVL1:
  18:Hardware/Led/bsp_led.c **** 	gpio_output_options_set(PORT_LED,GPIO_OTYPE_PP,GPIO_OSPEED_50MHZ,PIN_LED);
  50              		.loc 1 18 2 view .LVU3
  51 0018 0823     		movs	r3, #8
  52 001a 0222     		movs	r2, #2
  53 001c 0021     		movs	r1, #0
  54 001e 2046     		mov	r0, r4
  55 0020 FFF7FEFF 		bl	gpio_output_options_set
  56              	.LVL2:
  19:Hardware/Led/bsp_led.c **** 
  20:Hardware/Led/bsp_led.c **** 	rcu_periph_clock_enable(RCU_LED2);
  57              		.loc 1 20 2 view .LVU4
  58 0024 40F60340 		movw	r0, #3075
  59 0028 FFF7FEFF 		bl	rcu_periph_clock_enable
  60              	.LVL3:
  21:Hardware/Led/bsp_led.c **** 	gpio_mode_set(PORT_LED2,GPIO_MODE_OUTPUT,GPIO_PUPD_NONE,PIN_LED2);
  61              		.loc 1 21 2 view .LVU5
  62 002c A4F58064 		sub	r4, r4, #1024
  63 0030 8023     		movs	r3, #128
  64 0032 0022     		movs	r2, #0
  65 0034 0121     		movs	r1, #1
  66 0036 2046     		mov	r0, r4
  67 0038 FFF7FEFF 		bl	gpio_mode_set
  68              	.LVL4:
  22:Hardware/Led/bsp_led.c **** 	gpio_output_options_set(PORT_LED2,GPIO_OTYPE_PP,GPIO_OSPEED_50MHZ,PIN_LED2);
  69              		.loc 1 22 2 view .LVU6
  70 003c 8023     		movs	r3, #128
  71 003e 0222     		movs	r2, #2
  72 0040 0021     		movs	r1, #0
  73 0042 2046     		mov	r0, r4
  74 0044 FFF7FEFF 		bl	gpio_output_options_set
  75              	.LVL5:
  23:Hardware/Led/bsp_led.c **** 
  24:Hardware/Led/bsp_led.c **** 	rcu_periph_clock_enable(RCU_LED3);
  76              		.loc 1 24 2 view .LVU7
  77 0048 40F60640 		movw	r0, #3078
  78 004c FFF7FEFF 		bl	rcu_periph_clock_enable
  79              	.LVL6:
  25:Hardware/Led/bsp_led.c **** 	gpio_mode_set(PORT_LED3,GPIO_MODE_OUTPUT,GPIO_PUPD_NONE,PIN_LED3);
  80              		.loc 1 25 2 view .LVU8
  81 0050 04F54064 		add	r4, r4, #3072
  82 0054 0823     		movs	r3, #8
  83 0056 0022     		movs	r2, #0
  84 0058 0121     		movs	r1, #1
  85 005a 2046     		mov	r0, r4
  86 005c FFF7FEFF 		bl	gpio_mode_set
  87              	.LVL7:
  26:Hardware/Led/bsp_led.c **** 	gpio_output_options_set(PORT_LED3,GPIO_OTYPE_PP,GPIO_OSPEED_50MHZ,PIN_LED3);
  88              		.loc 1 26 2 view .LVU9
  89 0060 0823     		movs	r3, #8
ARM GAS  /tmp/cckz3iH0.s 			page 3


  90 0062 0222     		movs	r2, #2
  91 0064 0021     		movs	r1, #0
  92 0066 2046     		mov	r0, r4
  93 0068 FFF7FEFF 		bl	gpio_output_options_set
  94              	.LVL8:
  27:Hardware/Led/bsp_led.c **** 
  28:Hardware/Led/bsp_led.c **** 	rcu_periph_clock_enable(RCU_LED4);
  95              		.loc 1 28 2 view .LVU10
  96 006c 4FF44060 		mov	r0, #3072
  97 0070 FFF7FEFF 		bl	rcu_periph_clock_enable
  98              	.LVL9:
  29:Hardware/Led/bsp_led.c **** 	gpio_mode_set(PORT_LED4,GPIO_MODE_OUTPUT,GPIO_PUPD_NONE,PIN_LED4);
  99              		.loc 1 29 2 view .LVU11
 100 0074 A4F5C054 		sub	r4, r4, #6144
 101 0078 2023     		movs	r3, #32
 102 007a 0022     		movs	r2, #0
 103 007c 0121     		movs	r1, #1
 104 007e 2046     		mov	r0, r4
 105 0080 FFF7FEFF 		bl	gpio_mode_set
 106              	.LVL10:
  30:Hardware/Led/bsp_led.c **** 	gpio_output_options_set(PORT_LED4,GPIO_OTYPE_PP,GPIO_OSPEED_50MHZ,PIN_LED4);
 107              		.loc 1 30 2 view .LVU12
 108 0084 2023     		movs	r3, #32
 109 0086 0222     		movs	r2, #2
 110 0088 0021     		movs	r1, #0
 111 008a 2046     		mov	r0, r4
 112 008c FFF7FEFF 		bl	gpio_output_options_set
 113              	.LVL11:
  31:Hardware/Led/bsp_led.c **** 
  32:Hardware/Led/bsp_led.c **** 
  33:Hardware/Led/bsp_led.c **** 
  34:Hardware/Led/bsp_led.c **** /*
  35:Hardware/Led/bsp_led.c **** 
  36:Hardware/Led/bsp_led.c **** 	BSP_RCU_AHB1EN |=(0x00000008);
  37:Hardware/Led/bsp_led.c **** 	
  38:Hardware/Led/bsp_led.c **** 	BSP_GPIOD_CTL &=0xffff3fff;
  39:Hardware/Led/bsp_led.c **** 	BSP_GPIOD_CTL |=0x00004000;
  40:Hardware/Led/bsp_led.c **** 
  41:Hardware/Led/bsp_led.c **** 	BSP_GPIOD_PUD &= ~(0x03<<(2*7));
  42:Hardware/Led/bsp_led.c **** 	BSP_GPIOD_OMODE &= ~(0x01<< 7);
  43:Hardware/Led/bsp_led.c **** 
  44:Hardware/Led/bsp_led.c **** 	BSP_GPIOD_OSPD &= ~(0x03<<(2*7));
  45:Hardware/Led/bsp_led.c **** 	BSP_GPIOD_OSPD |= (0x02<<(2*7));
  46:Hardware/Led/bsp_led.c **** */
  47:Hardware/Led/bsp_led.c **** }
 114              		.loc 1 47 1 is_stmt 0 view .LVU13
 115 0090 10BD     		pop	{r4, pc}
 116              	.L4:
 117 0092 00BF     		.align	2
 118              	.L3:
 119 0094 00100240 		.word	1073876992
 120              		.cfi_endproc
 121              	.LFE116:
 123              		.text
 124              	.Letext0:
 125              		.file 2 "/home/david/gcc-arm-none-eabi/arm-none-eabi/include/machine/_default_types.h"
 126              		.file 3 "/home/david/gcc-arm-none-eabi/arm-none-eabi/include/sys/_stdint.h"
ARM GAS  /tmp/cckz3iH0.s 			page 4


 127              		.file 4 "Firmware/GD32F4xx_standard_peripheral/Include/gd32f4xx_rcu.h"
 128              		.file 5 "Firmware/GD32F4xx_standard_peripheral/Include/gd32f4xx_gpio.h"
ARM GAS  /tmp/cckz3iH0.s 			page 5


DEFINED SYMBOLS
                            *ABS*:0000000000000000 bsp_led.c
     /tmp/cckz3iH0.s:20     .text.led_gpio_config:0000000000000000 $t
     /tmp/cckz3iH0.s:26     .text.led_gpio_config:0000000000000000 led_gpio_config
     /tmp/cckz3iH0.s:119    .text.led_gpio_config:0000000000000094 $d

UNDEFINED SYMBOLS
rcu_periph_clock_enable
gpio_mode_set
gpio_output_options_set
