ARM GAS  /tmp/cc6KjeHv.s 			page 1


   1              		.cpu cortex-m4
   2              		.arch armv7e-m
   3              		.fpu fpv4-sp-d16
   4              		.eabi_attribute 27, 1
   5              		.eabi_attribute 28, 1
   6              		.eabi_attribute 20, 1
   7              		.eabi_attribute 21, 1
   8              		.eabi_attribute 23, 3
   9              		.eabi_attribute 24, 1
  10              		.eabi_attribute 25, 1
  11              		.eabi_attribute 26, 1
  12              		.eabi_attribute 30, 1
  13              		.eabi_attribute 34, 1
  14              		.eabi_attribute 18, 4
  15              		.file	"main.c"
  16              		.text
  17              	.Ltext0:
  18              		.cfi_sections	.debug_frame
  19              		.section	.text.main,"ax",%progbits
  20              		.align	1
  21              		.global	main
  22              		.syntax unified
  23              		.thumb
  24              		.thumb_func
  26              	main:
  27              	.LFB119:
  28              		.file 1 "User/main.c"
   1:User/main.c   **** /*!
   2:User/main.c   ****     \file    main.c
   3:User/main.c   ****     \brief   led spark with systick
   4:User/main.c   **** 
   5:User/main.c   ****     \version 2016-08-15, V1.0.0, firmware for GD32F4xx
   6:User/main.c   ****     \version 2018-12-12, V2.0.0, firmware for GD32F4xx
   7:User/main.c   ****     \version 2020-09-30, V2.1.0, firmware for GD32F4xx
   8:User/main.c   ****     \version 2022-03-09, V3.0.0, firmware for GD32F4xx
   9:User/main.c   **** */
  10:User/main.c   **** 
  11:User/main.c   **** /*
  12:User/main.c   ****     Copyright (c) 2022, GigaDevice Semiconductor Inc.
  13:User/main.c   **** 
  14:User/main.c   ****     Redistribution and use in source and binary forms, with or without modification,
  15:User/main.c   **** are permitted provided that the following conditions are met:
  16:User/main.c   **** 
  17:User/main.c   ****     1. Redistributions of source code must retain the above copyright notice, this
  18:User/main.c   ****        list of conditions and the following disclaimer.
  19:User/main.c   ****     2. Redistributions in binary form must reproduce the above copyright notice,
  20:User/main.c   ****        this list of conditions and the following disclaimer in the documentation
  21:User/main.c   ****        and/or other materials provided with the distribution.
  22:User/main.c   ****     3. Neither the name of the copyright holder nor the names of its contributors
  23:User/main.c   ****        may be used to endorse or promote products derived from this software without
  24:User/main.c   ****        specific prior written permission.
  25:User/main.c   **** 
  26:User/main.c   ****     THIS SOFTWARE IS PROVIDED BY THE COPYRIGHT HOLDERS AND CONTRIBUTORS "AS IS"
  27:User/main.c   **** AND ANY EXPRESS OR IMPLIED WARRANTIES, INCLUDING, BUT NOT LIMITED TO, THE IMPLIED
  28:User/main.c   **** WARRANTIES OF MERCHANTABILITY AND FITNESS FOR A PARTICULAR PURPOSE ARE DISCLAIMED.
  29:User/main.c   **** IN NO EVENT SHALL THE COPYRIGHT HOLDER OR CONTRIBUTORS BE LIABLE FOR ANY DIRECT,
  30:User/main.c   **** INDIRECT, INCIDENTAL, SPECIAL, EXEMPLARY, OR CONSEQUENTIAL DAMAGES (INCLUDING, BUT
ARM GAS  /tmp/cc6KjeHv.s 			page 2


  31:User/main.c   **** NOT LIMITED TO, PROCUREMENT OF SUBSTITUTE GOODS OR SERVICES; LOSS OF USE, DATA, OR
  32:User/main.c   **** PROFITS; OR BUSINESS INTERRUPTION) HOWEVER CAUSED AND ON ANY THEORY OF LIABILITY,
  33:User/main.c   **** WHETHER IN CONTRACT, STRICT LIABILITY, OR TORT (INCLUDING NEGLIGENCE OR OTHERWISE)
  34:User/main.c   **** ARISING IN ANY WAY OUT OF THE USE OF THIS SOFTWARE, EVEN IF ADVISED OF THE POSSIBILITY
  35:User/main.c   **** OF SUCH DAMAGE.
  36:User/main.c   **** */
  37:User/main.c   **** 
  38:User/main.c   **** #include "gd32f4xx.h"
  39:User/main.c   **** #include "systick.h"
  40:User/main.c   **** #include <stdio.h>
  41:User/main.c   **** #include "main.h"
  42:User/main.c   **** #include "bsp_led.h"
  43:User/main.c   **** 
  44:User/main.c   **** /*!
  45:User/main.c   ****     \brief    main function
  46:User/main.c   ****     \param[in]  none
  47:User/main.c   ****     \param[out] none
  48:User/main.c   ****     \retval     none
  49:User/main.c   **** */
  50:User/main.c   **** int main(void)
  51:User/main.c   **** {
  29              		.loc 1 51 1 view -0
  30              		.cfi_startproc
  31              		@ Volatile: function does not return.
  32              		@ args = 0, pretend = 0, frame = 0
  33              		@ frame_needed = 0, uses_anonymous_args = 0
  34 0000 08B5     		push	{r3, lr}
  35              	.LCFI0:
  36              		.cfi_def_cfa_offset 8
  37              		.cfi_offset 3, -8
  38              		.cfi_offset 14, -4
  52:User/main.c   **** 
  53:User/main.c   ****    // gd_eval_led_init(LED2);
  54:User/main.c   ****     systick_config();
  39              		.loc 1 54 5 view .LVU1
  40 0002 FFF7FEFF 		bl	systick_config
  41              	.LVL0:
  55:User/main.c   ****     led_gpio_config();
  42              		.loc 1 55 5 view .LVU2
  43 0006 FFF7FEFF 		bl	led_gpio_config
  44              	.LVL1:
  56:User/main.c   **** 
  57:User/main.c   **** //    BSP_GPIOD_OCTL |= (0x01<<7);
  58:User/main.c   **** 
  59:User/main.c   **** //	gpio_bit_set(GPIOD,GPIO_PIN_7);
  60:User/main.c   **** //	gpio_bit_reset(GPIOD,GPIO_PIN_7);
  61:User/main.c   **** 	gpio_bit_write(PORT_LED,PIN_LED,SET);
  45              		.loc 1 61 2 view .LVU3
  46 000a 0122     		movs	r2, #1
  47 000c 0821     		movs	r1, #8
  48 000e 0948     		ldr	r0, .L4
  49 0010 FFF7FEFF 		bl	gpio_bit_write
  50              	.LVL2:
  62:User/main.c   **** 	gpio_bit_write(PORT_LED2,PIN_LED2,SET);
  51              		.loc 1 62 2 view .LVU4
  52 0014 0122     		movs	r2, #1
  53 0016 8021     		movs	r1, #128
ARM GAS  /tmp/cc6KjeHv.s 			page 3


  54 0018 0748     		ldr	r0, .L4+4
  55 001a FFF7FEFF 		bl	gpio_bit_write
  56              	.LVL3:
  63:User/main.c   **** 	gpio_bit_write(PORT_LED3,PIN_LED3,SET);
  57              		.loc 1 63 2 view .LVU5
  58 001e 0122     		movs	r2, #1
  59 0020 0821     		movs	r1, #8
  60 0022 0648     		ldr	r0, .L4+8
  61 0024 FFF7FEFF 		bl	gpio_bit_write
  62              	.LVL4:
  64:User/main.c   **** 	gpio_bit_write(PORT_LED4,PIN_LED4,SET);
  63              		.loc 1 64 2 view .LVU6
  64 0028 0122     		movs	r2, #1
  65 002a 2021     		movs	r1, #32
  66 002c 0448     		ldr	r0, .L4+12
  67 002e FFF7FEFF 		bl	gpio_bit_write
  68              	.LVL5:
  69              	.L2:
  65:User/main.c   **** 
  66:User/main.c   **** 	
  67:User/main.c   ****     while(1) {
  70              		.loc 1 67 5 discriminator 1 view .LVU7
  68:User/main.c   ****     }
  71              		.loc 1 68 5 discriminator 1 view .LVU8
  67:User/main.c   ****     }
  72              		.loc 1 67 10 discriminator 1 view .LVU9
  73 0032 FEE7     		b	.L2
  74              	.L5:
  75              		.align	2
  76              	.L4:
  77 0034 00100240 		.word	1073876992
  78 0038 000C0240 		.word	1073875968
  79 003c 00180240 		.word	1073879040
  80 0040 00000240 		.word	1073872896
  81              		.cfi_endproc
  82              	.LFE119:
  84              		.text
  85              	.Letext0:
  86              		.file 2 "/home/david/gcc-arm-none-eabi/arm-none-eabi/include/machine/_default_types.h"
  87              		.file 3 "/home/david/gcc-arm-none-eabi/arm-none-eabi/include/sys/_stdint.h"
  88              		.file 4 "User/systick.h"
  89              		.file 5 "Hardware/Led/bsp_led.h"
  90              		.file 6 "Firmware/GD32F4xx_standard_peripheral/Include/gd32f4xx_gpio.h"
  91              		.file 7 "Firmware/CMSIS/GD/GD32F4xx/Include/gd32f4xx.h"
ARM GAS  /tmp/cc6KjeHv.s 			page 4


DEFINED SYMBOLS
                            *ABS*:0000000000000000 main.c
     /tmp/cc6KjeHv.s:20     .text.main:0000000000000000 $t
     /tmp/cc6KjeHv.s:26     .text.main:0000000000000000 main
     /tmp/cc6KjeHv.s:77     .text.main:0000000000000034 $d

UNDEFINED SYMBOLS
systick_config
led_gpio_config
gpio_bit_write
